; Function Attrs: mustprogress uwtable
define dso_local void @_ZN3net16QuicCryptoStream18OnHandshakeMessageERKNS_22CryptoHandshakeMessageE(ptr nocapture noundef nonnull readonly align 8 dereferenceable(1048) %this, ptr noundef nonnull align 8 dereferenceable(72) %message) unnamed_addr #0 align 2 {
entry:
  %session_.i = getelementptr inbounds i8, ptr %this, i64 224
  %0 = load ptr, ptr %session_.i, align 8
  %vtable = load ptr, ptr %0, align 8
  %vfn = getelementptr inbounds i8, ptr %vtable, i64 224
  %1 = load ptr, ptr %vfn, align 8
  tail call void %1(ptr noundef nonnull align 8 dereferenceable(2044) %0, ptr noundef nonnull align 8 dereferenceable(72) %message)
  ret void
}